(lp0
(S'elfflags'
p1
ccopy_reg
_reconstructor
p2
(cino.utils
SpaceList
p3
c__builtin__
list
p4
(lp5
S'-Os'
p6
aS'-Wl,--gc-sections'
p7
aS'-mmcu=atmega328p'
p8
atp9
Rp10
tp11
a(S'version.txt'
p12
S'/Applications/Arduino.app/Contents/Resources/Java/lib/version.txt'
p13
tp14
a(S'cc'
p15
S'/Applications/Arduino.app/Contents/Resources/Java/hardware/tools/avr/bin/avr-gcc'
p16
tp17
a(S'build_dir'
p18
S'.build/uno'
p19
tp20
a(S'arduino_core_dir'
p21
S'/Applications/Arduino.app/Contents/Resources/Java/hardware/arduino/cores/arduino'
p22
tp23
a(S'boards.txt'
p24
S'/Applications/Arduino.app/Contents/Resources/Java/hardware/arduino/boards.txt'
p25
tp26
a(S'cxxflags'
p27
g2
(g3
g4
(lp28
S'-fno-exceptions'
p29
atp30
Rp31
tp32
a(S'arduino_variants_dir'
p33
S'/Applications/Arduino.app/Contents/Resources/Java/hardware/arduino/variants'
p34
tp35
a(S'deps'
p36
g2
(g3
g4
(lp37
tp38
Rp39
tp40
a(S'ar'
p41
S'/Applications/Arduino.app/Contents/Resources/Java/hardware/tools/avr/bin/avr-ar'
p42
tp43
a(S'names'
p44
(dp45
S'cpp'
p46
S'%s.cpp'
p47
sS'obj'
p48
S'%s.o'
p49
sS'deps'
p50
S'%s.d'
p51
sS'lib'
p52
S'lib%s.a'
p53
stp54
a(S'cflags'
p55
g2
(g3
g4
(lp56
g8
aS'-ffunction-sections'
p57
aS'-fdata-sections'
p58
aS'-g'
p59
ag6
aS'-w'
p60
aS'-DF_CPU=16000000L'
p61
aS'-DARDUINO=100'
p62
aS'-I/Applications/Arduino.app/Contents/Resources/Java/hardware/arduino/cores/arduino'
p63
aS'-I/Applications/Arduino.app/Contents/Resources/Java/hardware/arduino/variants/standard'
p64
atp65
Rp66
tp67
a(S'arduino_libraries_dir'
p68
S'/Applications/Arduino.app/Contents/Resources/Java/libraries'
p69
tp70
a(S'arduino_lib_version'
p71
g2
(cino.environment
Version
p72
c__builtin__
tuple
p73
(I1
I0
tp74
tp75
Rp76
tp77
a(S'objcopy'
p78
S'/Applications/Arduino.app/Contents/Resources/Java/hardware/tools/avr/bin/avr-objcopy'
p79
tp80
a(S'board_models'
p81
cino.environment
BoardModels
p82
((lp83
(lp84
S'uno'
p85
a(dp86
S'bootloader'
p87
(dp88
S'extended_fuses'
p89
S'0x05'
p90
sS'high_fuses'
p91
S'0xde'
p92
sS'low_fuses'
p93
S'0xff'
p94
sS'lock_bits'
p95
S'0x0F'
p96
sS'file'
p97
S'optiboot_atmega328.hex'
p98
sS'path'
p99
S'optiboot'
p100
sS'unlock_bits'
p101
S'0x3F'
p102
ssS'upload'
p103
(dp104
S'speed'
p105
S'115200'
p106
sS'maximum_size'
p107
S'32256'
p108
sS'protocol'
p109
S'arduino'
p110
ssS'name'
p111
S'Arduino Uno'
p112
sS'build'
p113
(dp114
S'core'
p115
S'arduino'
p116
sS'mcu'
p117
S'atmega328p'
p118
sS'f_cpu'
p119
S'16000000L'
p120
sS'variant'
p121
S'standard'
p122
ssaa(lp123
S'atmega328'
p124
a(dp125
S'bootloader'
p126
(dp127
S'extended_fuses'
p128
S'0x05'
p129
sS'high_fuses'
p130
S'0xDA'
p131
sS'low_fuses'
p132
S'0xFF'
p133
sS'lock_bits'
p134
S'0x0F'
p135
sS'file'
p136
S'ATmegaBOOT_168_atmega328.hex'
p137
sS'path'
p138
S'atmega'
p139
sS'unlock_bits'
p140
S'0x3F'
p141
ssS'upload'
p142
(dp143
S'speed'
p144
S'57600'
p145
sS'maximum_size'
p146
S'30720'
p147
sS'protocol'
p148
S'arduino'
p149
ssS'name'
p150
S'Arduino Duemilanove w/ ATmega328'
p151
sS'build'
p152
(dp153
S'core'
p154
S'arduino'
p155
sS'mcu'
p156
S'atmega328p'
p157
sS'f_cpu'
p158
S'16000000L'
p159
sS'variant'
p160
S'standard'
p161
ssaa(lp162
S'diecimila'
p163
a(dp164
S'bootloader'
p165
(dp166
S'extended_fuses'
p167
S'0x00'
p168
sS'high_fuses'
p169
S'0xdd'
p170
sS'low_fuses'
p171
S'0xff'
p172
sS'lock_bits'
p173
S'0x0F'
p174
sS'file'
p175
S'ATmegaBOOT_168_diecimila.hex'
p176
sS'path'
p177
S'atmega'
p178
sS'unlock_bits'
p179
S'0x3F'
p180
ssS'upload'
p181
(dp182
S'speed'
p183
S'19200'
p184
sS'maximum_size'
p185
S'14336'
p186
sS'protocol'
p187
S'arduino'
p188
ssS'name'
p189
S'Arduino Diecimila or Duemilanove w/ ATmega168'
p190
sS'build'
p191
(dp192
S'core'
p193
S'arduino'
p194
sS'mcu'
p195
S'atmega168'
p196
sS'f_cpu'
p197
S'16000000L'
p198
sS'variant'
p199
S'standard'
p200
ssaa(lp201
S'nano328'
p202
a(dp203
S'bootloader'
p204
(dp205
S'extended_fuses'
p206
S'0x05'
p207
sS'high_fuses'
p208
S'0xDA'
p209
sS'low_fuses'
p210
S'0xFF'
p211
sS'lock_bits'
p212
S'0x0F'
p213
sS'file'
p214
S'ATmegaBOOT_168_atmega328.hex'
p215
sS'path'
p216
S'atmega'
p217
sS'unlock_bits'
p218
S'0x3F'
p219
ssS'upload'
p220
(dp221
S'speed'
p222
S'57600'
p223
sS'maximum_size'
p224
S'30720'
p225
sS'protocol'
p226
S'arduino'
p227
ssS'name'
p228
S'Arduino Nano w/ ATmega328'
p229
sS'build'
p230
(dp231
S'core'
p232
S'arduino'
p233
sS'mcu'
p234
S'atmega328p'
p235
sS'f_cpu'
p236
S'16000000L'
p237
sS'variant'
p238
S'eightanaloginputs'
p239
ssaa(lp240
S'nano'
p241
a(dp242
S'bootloader'
p243
(dp244
S'extended_fuses'
p245
S'0x00'
p246
sS'high_fuses'
p247
S'0xdd'
p248
sS'low_fuses'
p249
S'0xff'
p250
sS'lock_bits'
p251
S'0x0F'
p252
sS'file'
p253
S'ATmegaBOOT_168_diecimila.hex'
p254
sS'path'
p255
S'atmega'
p256
sS'unlock_bits'
p257
S'0x3F'
p258
ssS'upload'
p259
(dp260
S'speed'
p261
S'19200'
p262
sS'maximum_size'
p263
S'14336'
p264
sS'protocol'
p265
S'arduino'
p266
ssS'name'
p267
S'Arduino Nano w/ ATmega168'
p268
sS'build'
p269
(dp270
S'core'
p271
S'arduino'
p272
sS'mcu'
p273
S'atmega168'
p274
sS'f_cpu'
p275
S'16000000L'
p276
sS'variant'
p277
S'eightanaloginputs'
p278
ssaa(lp279
S'mega2560'
p280
a(dp281
S'bootloader'
p282
(dp283
S'extended_fuses'
p284
S'0xFD'
p285
sS'high_fuses'
p286
S'0xD8'
p287
sS'low_fuses'
p288
S'0xFF'
p289
sS'lock_bits'
p290
S'0x0F'
p291
sS'file'
p292
S'stk500boot_v2_mega2560.hex'
p293
sS'path'
p294
S'stk500v2'
p295
sS'unlock_bits'
p296
S'0x3F'
p297
ssS'upload'
p298
(dp299
S'speed'
p300
S'115200'
p301
sS'maximum_size'
p302
S'258048'
p303
sS'protocol'
p304
S'wiring'
p305
ssS'name'
p306
S'Arduino Mega 2560 or Mega ADK'
p307
sS'build'
p308
(dp309
S'core'
p310
S'arduino'
p311
sS'mcu'
p312
S'atmega2560'
p313
sS'f_cpu'
p314
S'16000000L'
p315
sS'variant'
p316
S'mega'
p317
ssaa(lp318
S'mega'
p319
a(dp320
S'bootloader'
p321
(dp322
S'extended_fuses'
p323
S'0xF5'
p324
sS'high_fuses'
p325
S'0xDA'
p326
sS'low_fuses'
p327
S'0xFF'
p328
sS'lock_bits'
p329
S'0x0F'
p330
sS'file'
p331
S'ATmegaBOOT_168_atmega1280.hex'
p332
sS'path'
p333
S'atmega'
p334
sS'unlock_bits'
p335
S'0x3F'
p336
ssS'upload'
p337
(dp338
S'speed'
p339
S'57600'
p340
sS'maximum_size'
p341
S'126976'
p342
sS'protocol'
p343
S'arduino'
p344
ssS'name'
p345
S'Arduino Mega (ATmega1280)'
p346
sS'build'
p347
(dp348
S'core'
p349
S'arduino'
p350
sS'mcu'
p351
S'atmega1280'
p352
sS'f_cpu'
p353
S'16000000L'
p354
sS'variant'
p355
S'mega'
p356
ssaa(lp357
S'leonardo'
p358
a(dp359
S'bootloader'
p360
(dp361
S'extended_fuses'
p362
S'0xcb'
p363
sS'high_fuses'
p364
S'0xd8'
p365
sS'low_fuses'
p366
S'0xff'
p367
sS'lock_bits'
p368
S'0x2F'
p369
sS'file'
p370
S'Caterina-Leonardo.hex'
p371
sS'path'
p372
S'caterina'
p373
sS'unlock_bits'
p374
S'0x3F'
p375
ssS'upload'
p376
(dp377
S'speed'
p378
S'57600'
p379
sS'maximum_size'
p380
S'28672'
p381
sS'protocol'
p382
S'avr109'
p383
sS'disable_flushing'
p384
S'true'
p385
ssS'name'
p386
S'Arduino Leonardo'
p387
sS'build'
p388
(dp389
S'core'
p390
S'arduino'
p391
sS'f_cpu'
p392
S'16000000L'
p393
sS'vid'
p394
S'0x2341'
p395
sS'pid'
p396
S'0x8036'
p397
sS'variant'
p398
S'leonardo'
p399
sS'mcu'
p400
S'atmega32u4'
p401
ssaa(lp402
S'esplora'
p403
a(dp404
S'bootloader'
p405
(dp406
S'extended_fuses'
p407
S'0xcb'
p408
sS'high_fuses'
p409
S'0xd8'
p410
sS'low_fuses'
p411
S'0xff'
p412
sS'lock_bits'
p413
S'0x2F'
p414
sS'file'
p415
S'Caterina-Esplora.hex'
p416
sS'path'
p417
S'caterina'
p418
sS'unlock_bits'
p419
S'0x3F'
p420
ssS'upload'
p421
(dp422
S'speed'
p423
S'57600'
p424
sS'maximum_size'
p425
S'28672'
p426
sS'protocol'
p427
S'avr109'
p428
sS'disable_flushing'
p429
S'true'
p430
ssS'name'
p431
S'Arduino Esplora'
p432
sS'build'
p433
(dp434
S'core'
p435
S'arduino'
p436
sS'f_cpu'
p437
S'16000000L'
p438
sS'vid'
p439
S'0x2341'
p440
sS'pid'
p441
S'0x803C'
p442
sS'variant'
p443
S'leonardo'
p444
sS'mcu'
p445
S'atmega32u4'
p446
ssaa(lp447
S'micro'
p448
a(dp449
S'bootloader'
p450
(dp451
S'extended_fuses'
p452
S'0xcb'
p453
sS'high_fuses'
p454
S'0xd8'
p455
sS'low_fuses'
p456
S'0xff'
p457
sS'lock_bits'
p458
S'0x2F'
p459
sS'file'
p460
S'Caterina-Micro.hex'
p461
sS'path'
p462
S'caterina'
p463
sS'unlock_bits'
p464
S'0x3F'
p465
ssS'upload'
p466
(dp467
S'speed'
p468
S'57600'
p469
sS'maximum_size'
p470
S'28672'
p471
sS'protocol'
p472
S'avr109'
p473
sS'disable_flushing'
p474
S'true'
p475
ssS'name'
p476
S'Arduino Micro'
p477
sS'build'
p478
(dp479
S'core'
p480
S'arduino'
p481
sS'f_cpu'
p482
S'16000000L'
p483
sS'vid'
p484
S'0x2341'
p485
sS'pid'
p486
S'0x8037'
p487
sS'variant'
p488
S'micro'
p489
sS'mcu'
p490
S'atmega32u4'
p491
ssaa(lp492
S'mini328'
p493
a(dp494
S'bootloader'
p495
(dp496
S'extended_fuses'
p497
S'0x05'
p498
sS'high_fuses'
p499
S'0xd8'
p500
sS'low_fuses'
p501
S'0xff'
p502
sS'lock_bits'
p503
S'0x0F'
p504
sS'file'
p505
S'optiboot_atmega328-Mini.hex'
p506
sS'path'
p507
S'optiboot'
p508
sS'unlock_bits'
p509
S'0x3F'
p510
ssS'upload'
p511
(dp512
S'speed'
p513
S'115200'
p514
sS'maximum_size'
p515
S'28672'
p516
sS'protocol'
p517
S'arduino'
p518
ssS'name'
p519
S'Arduino Mini w/ ATmega328'
p520
sS'build'
p521
(dp522
S'core'
p523
S'arduino'
p524
sS'mcu'
p525
S'atmega328p'
p526
sS'f_cpu'
p527
S'16000000L'
p528
sS'variant'
p529
S'eightanaloginputs'
p530
ssaa(lp531
S'mini'
p532
a(dp533
S'bootloader'
p534
(dp535
S'extended_fuses'
p536
S'0x00'
p537
sS'high_fuses'
p538
S'0xdd'
p539
sS'low_fuses'
p540
S'0xff'
p541
sS'lock_bits'
p542
S'0x0F'
p543
sS'file'
p544
S'ATmegaBOOT_168_ng.hex'
p545
sS'path'
p546
S'atmega'
p547
sS'unlock_bits'
p548
S'0x3F'
p549
ssS'upload'
p550
(dp551
S'speed'
p552
S'19200'
p553
sS'maximum_size'
p554
S'14336'
p555
sS'protocol'
p556
S'arduino'
p557
ssS'name'
p558
S'Arduino Mini w/ ATmega168'
p559
sS'build'
p560
(dp561
S'core'
p562
S'arduino'
p563
sS'mcu'
p564
S'atmega168'
p565
sS'f_cpu'
p566
S'16000000L'
p567
sS'variant'
p568
S'eightanaloginputs'
p569
ssaa(lp570
S'ethernet'
p571
a(dp572
S'bootloader'
p573
(dp574
S'extended_fuses'
p575
S'0x05'
p576
sS'high_fuses'
p577
S'0xde'
p578
sS'low_fuses'
p579
S'0xff'
p580
sS'lock_bits'
p581
S'0x0F'
p582
sS'file'
p583
S'optiboot_atmega328.hex'
p584
sS'path'
p585
S'optiboot'
p586
sS'unlock_bits'
p587
S'0x3F'
p588
ssS'upload'
p589
(dp590
S'speed'
p591
S'115200'
p592
sS'maximum_size'
p593
S'32256'
p594
sS'protocol'
p595
S'arduino'
p596
ssS'name'
p597
S'Arduino Ethernet'
p598
sS'build'
p599
(dp600
S'f_cpu'
p601
S'16000000L'
p602
sS'mcu'
p603
S'atmega328p'
p604
sS'variant'
p605
S'standard'
p606
sS'core'
p607
S'arduino'
p608
ssaa(lp609
S'fio'
p610
a(dp611
S'bootloader'
p612
(dp613
S'extended_fuses'
p614
S'0x05'
p615
sS'high_fuses'
p616
S'0xDA'
p617
sS'low_fuses'
p618
S'0xFF'
p619
sS'lock_bits'
p620
S'0x0F'
p621
sS'file'
p622
S'ATmegaBOOT_168_atmega328_pro_8MHz.hex'
p623
sS'path'
p624
S'arduino:atmega'
p625
sS'unlock_bits'
p626
S'0x3F'
p627
ssS'upload'
p628
(dp629
S'speed'
p630
S'57600'
p631
sS'maximum_size'
p632
S'30720'
p633
sS'protocol'
p634
S'arduino'
p635
ssS'name'
p636
S'Arduino Fio'
p637
sS'build'
p638
(dp639
S'core'
p640
S'arduino'
p641
sS'mcu'
p642
S'atmega328p'
p643
sS'f_cpu'
p644
S'8000000L'
p645
sS'variant'
p646
S'eightanaloginputs'
p647
ssaa(lp648
S'bt328'
p649
a(dp650
S'bootloader'
p651
(dp652
S'extended_fuses'
p653
S'0x05'
p654
sS'high_fuses'
p655
S'0xd8'
p656
sS'low_fuses'
p657
S'0xff'
p658
sS'lock_bits'
p659
S'0x0F'
p660
sS'file'
p661
S'ATmegaBOOT_168_atmega328_bt.hex'
p662
sS'path'
p663
S'bt'
p664
sS'unlock_bits'
p665
S'0x3F'
p666
ssS'upload'
p667
(dp668
S'speed'
p669
S'19200'
p670
sS'maximum_size'
p671
S'28672'
p672
sS'protocol'
p673
S'arduino'
p674
sS'disable_flushing'
p675
S'true'
p676
ssS'name'
p677
S'Arduino BT w/ ATmega328'
p678
sS'build'
p679
(dp680
S'core'
p681
S'arduino'
p682
sS'mcu'
p683
S'atmega328p'
p684
sS'f_cpu'
p685
S'16000000L'
p686
sS'variant'
p687
S'eightanaloginputs'
p688
ssaa(lp689
S'bt'
p690
a(dp691
S'bootloader'
p692
(dp693
S'extended_fuses'
p694
S'0x00'
p695
sS'high_fuses'
p696
S'0xdd'
p697
sS'low_fuses'
p698
S'0xff'
p699
sS'lock_bits'
p700
S'0x0F'
p701
sS'file'
p702
S'ATmegaBOOT_168.hex'
p703
sS'path'
p704
S'bt'
p705
sS'unlock_bits'
p706
S'0x3F'
p707
ssS'upload'
p708
(dp709
S'speed'
p710
S'19200'
p711
sS'maximum_size'
p712
S'14336'
p713
sS'protocol'
p714
S'arduino'
p715
sS'disable_flushing'
p716
S'true'
p717
ssS'name'
p718
S'Arduino BT w/ ATmega168'
p719
sS'build'
p720
(dp721
S'core'
p722
S'arduino'
p723
sS'mcu'
p724
S'atmega168'
p725
sS'f_cpu'
p726
S'16000000L'
p727
sS'variant'
p728
S'eightanaloginputs'
p729
ssaa(lp730
S'LilyPadUSB'
p731
a(dp732
S'bootloader'
p733
(dp734
S'extended_fuses'
p735
S'0xce'
p736
sS'high_fuses'
p737
S'0xd8'
p738
sS'low_fuses'
p739
S'0xff'
p740
sS'lock_bits'
p741
S'0x2F'
p742
sS'file'
p743
S'Caterina-LilyPadUSB.hex'
p744
sS'path'
p745
S'caterina-LilyPadUSB'
p746
sS'unlock_bits'
p747
S'0x3F'
p748
ssS'upload'
p749
(dp750
S'speed'
p751
S'57600'
p752
sS'maximum_size'
p753
S'28672'
p754
sS'protocol'
p755
S'avr109'
p756
sS'disable_flushing'
p757
S'true'
p758
ssS'name'
p759
S'LilyPad Arduino USB'
p760
sS'build'
p761
(dp762
S'core'
p763
S'arduino'
p764
sS'f_cpu'
p765
S'8000000L'
p766
sS'vid'
p767
S'0x1B4F'
p768
sS'pid'
p769
S'0x9208'
p770
sS'variant'
p771
S'leonardo'
p772
sS'mcu'
p773
S'atmega32u4'
p774
ssaa(lp775
S'lilypad328'
p776
a(dp777
S'bootloader'
p778
(dp779
S'extended_fuses'
p780
S'0x05'
p781
sS'high_fuses'
p782
S'0xDA'
p783
sS'low_fuses'
p784
S'0xFF'
p785
sS'lock_bits'
p786
S'0x0F'
p787
sS'file'
p788
S'ATmegaBOOT_168_atmega328_pro_8MHz.hex'
p789
sS'path'
p790
S'atmega'
p791
sS'unlock_bits'
p792
S'0x3F'
p793
ssS'upload'
p794
(dp795
S'speed'
p796
S'57600'
p797
sS'maximum_size'
p798
S'30720'
p799
sS'protocol'
p800
S'arduino'
p801
ssS'name'
p802
S'LilyPad Arduino w/ ATmega328'
p803
sS'build'
p804
(dp805
S'core'
p806
S'arduino'
p807
sS'mcu'
p808
S'atmega328p'
p809
sS'f_cpu'
p810
S'8000000L'
p811
sS'variant'
p812
S'standard'
p813
ssaa(lp814
S'lilypad'
p815
a(dp816
S'bootloader'
p817
(dp818
S'extended_fuses'
p819
S'0x00'
p820
sS'high_fuses'
p821
S'0xdd'
p822
sS'low_fuses'
p823
S'0xe2'
p824
sS'lock_bits'
p825
S'0x0F'
p826
sS'file'
p827
S'LilyPadBOOT_168.hex'
p828
sS'path'
p829
S'lilypad'
p830
sS'unlock_bits'
p831
S'0x3F'
p832
ssS'upload'
p833
(dp834
S'speed'
p835
S'19200'
p836
sS'maximum_size'
p837
S'14336'
p838
sS'protocol'
p839
S'arduino'
p840
ssS'name'
p841
S'LilyPad Arduino w/ ATmega168'
p842
sS'build'
p843
(dp844
S'core'
p845
S'arduino'
p846
sS'mcu'
p847
S'atmega168'
p848
sS'f_cpu'
p849
S'8000000L'
p850
sS'variant'
p851
S'standard'
p852
ssaa(lp853
S'pro5v328'
p854
a(dp855
S'bootloader'
p856
(dp857
S'extended_fuses'
p858
S'0x05'
p859
sS'high_fuses'
p860
S'0xDA'
p861
sS'low_fuses'
p862
S'0xFF'
p863
sS'lock_bits'
p864
S'0x0F'
p865
sS'file'
p866
S'ATmegaBOOT_168_atmega328.hex'
p867
sS'path'
p868
S'atmega'
p869
sS'unlock_bits'
p870
S'0x3F'
p871
ssS'upload'
p872
(dp873
S'speed'
p874
S'57600'
p875
sS'maximum_size'
p876
S'30720'
p877
sS'protocol'
p878
S'arduino'
p879
ssS'name'
p880
S'Arduino Pro or Pro Mini (5V, 16 MHz) w/ ATmega328'
p881
sS'build'
p882
(dp883
S'core'
p884
S'arduino'
p885
sS'mcu'
p886
S'atmega328p'
p887
sS'f_cpu'
p888
S'16000000L'
p889
sS'variant'
p890
S'standard'
p891
ssaa(lp892
S'pro5v'
p893
a(dp894
S'bootloader'
p895
(dp896
S'extended_fuses'
p897
S'0x00'
p898
sS'high_fuses'
p899
S'0xdd'
p900
sS'low_fuses'
p901
S'0xff'
p902
sS'lock_bits'
p903
S'0x0F'
p904
sS'file'
p905
S'ATmegaBOOT_168_diecimila.hex'
p906
sS'path'
p907
S'atmega'
p908
sS'unlock_bits'
p909
S'0x3F'
p910
ssS'upload'
p911
(dp912
S'speed'
p913
S'19200'
p914
sS'maximum_size'
p915
S'14336'
p916
sS'protocol'
p917
S'arduino'
p918
ssS'name'
p919
S'Arduino Pro or Pro Mini (5V, 16 MHz) w/ ATmega168'
p920
sS'build'
p921
(dp922
S'core'
p923
S'arduino'
p924
sS'mcu'
p925
S'atmega168'
p926
sS'f_cpu'
p927
S'16000000L'
p928
sS'variant'
p929
S'standard'
p930
ssaa(lp931
S'pro328'
p932
a(dp933
S'bootloader'
p934
(dp935
S'extended_fuses'
p936
S'0x05'
p937
sS'high_fuses'
p938
S'0xDA'
p939
sS'low_fuses'
p940
S'0xFF'
p941
sS'lock_bits'
p942
S'0x0F'
p943
sS'file'
p944
S'ATmegaBOOT_168_atmega328_pro_8MHz.hex'
p945
sS'path'
p946
S'atmega'
p947
sS'unlock_bits'
p948
S'0x3F'
p949
ssS'upload'
p950
(dp951
S'speed'
p952
S'57600'
p953
sS'maximum_size'
p954
S'30720'
p955
sS'protocol'
p956
S'arduino'
p957
ssS'name'
p958
S'Arduino Pro or Pro Mini (3.3V, 8 MHz) w/ ATmega328'
p959
sS'build'
p960
(dp961
S'core'
p962
S'arduino'
p963
sS'mcu'
p964
S'atmega328p'
p965
sS'f_cpu'
p966
S'8000000L'
p967
sS'variant'
p968
S'standard'
p969
ssaa(lp970
S'pro'
p971
a(dp972
S'bootloader'
p973
(dp974
S'extended_fuses'
p975
S'0x00'
p976
sS'high_fuses'
p977
S'0xdd'
p978
sS'low_fuses'
p979
S'0xc6'
p980
sS'lock_bits'
p981
S'0x0F'
p982
sS'file'
p983
S'ATmegaBOOT_168_pro_8MHz.hex'
p984
sS'path'
p985
S'atmega'
p986
sS'unlock_bits'
p987
S'0x3F'
p988
ssS'upload'
p989
(dp990
S'speed'
p991
S'19200'
p992
sS'maximum_size'
p993
S'14336'
p994
sS'protocol'
p995
S'arduino'
p996
ssS'name'
p997
S'Arduino Pro or Pro Mini (3.3V, 8 MHz) w/ ATmega168'
p998
sS'build'
p999
(dp1000
S'core'
p1001
S'arduino'
p1002
sS'mcu'
p1003
S'atmega168'
p1004
sS'f_cpu'
p1005
S'8000000L'
p1006
sS'variant'
p1007
S'standard'
p1008
ssaa(lp1009
S'atmega168'
p1010
a(dp1011
S'bootloader'
p1012
(dp1013
S'extended_fuses'
p1014
S'0x00'
p1015
sS'high_fuses'
p1016
S'0xdd'
p1017
sS'low_fuses'
p1018
S'0xff'
p1019
sS'lock_bits'
p1020
S'0x0F'
p1021
sS'file'
p1022
S'ATmegaBOOT_168_ng.hex'
p1023
sS'path'
p1024
S'atmega'
p1025
sS'unlock_bits'
p1026
S'0x3F'
p1027
ssS'upload'
p1028
(dp1029
S'speed'
p1030
S'19200'
p1031
sS'maximum_size'
p1032
S'14336'
p1033
sS'protocol'
p1034
S'arduino'
p1035
ssS'name'
p1036
S'Arduino NG or older w/ ATmega168'
p1037
sS'build'
p1038
(dp1039
S'core'
p1040
S'arduino'
p1041
sS'mcu'
p1042
S'atmega168'
p1043
sS'f_cpu'
p1044
S'16000000L'
p1045
sS'variant'
p1046
S'standard'
p1047
ssaa(lp1048
S'atmega8'
p1049
a(dp1050
S'bootloader'
p1051
(dp1052
S'high_fuses'
p1053
S'0xca'
p1054
sS'low_fuses'
p1055
S'0xdf'
p1056
sS'lock_bits'
p1057
S'0x0F'
p1058
sS'file'
p1059
S'ATmegaBOOT-prod-firmware-2009-11-07.hex'
p1060
sS'path'
p1061
S'atmega8'
p1062
sS'unlock_bits'
p1063
S'0x3F'
p1064
ssS'upload'
p1065
(dp1066
S'speed'
p1067
S'19200'
p1068
sS'maximum_size'
p1069
S'7168'
p1070
sS'protocol'
p1071
S'arduino'
p1072
ssS'name'
p1073
S'Arduino NG or older w/ ATmega8'
p1074
sS'build'
p1075
(dp1076
S'core'
p1077
S'arduino'
p1078
sS'mcu'
p1079
S'atmega8'
p1080
sS'f_cpu'
p1081
S'16000000L'
p1082
sS'variant'
p1083
S'standard'
p1084
ssaatp1085
Rp1086
(dp1087
S'default'
p1088
S'uno'
p1089
sbtp1090
a(S'cxx'
p1091
S'/Applications/Arduino.app/Contents/Resources/Java/hardware/tools/avr/bin/avr-g++'
p1092
tp1093
a.